target datalayout = "e-m:e-p270:32:32-p271:32:32-p272:64:64-i64:64-i128:128-f80:128-n8:16:32:64-S128"
target triple = "x86_64-pc-linux-gnu"

%"class.std::chrono::duration" = type { i64 }
%"class.std::chrono::time_point" = type { %"class.std::chrono::duration" }
%"class.absl::synchronization_internal::KernelTimeout" = type { i64 }

; Function Attrs: mustprogress nounwind uwtable
define linkonce_odr dso_local void @_ZNSt6chrono8durationIlSt5ratioILl1ELl1000000000EEEC2IlvEERKT_(ptr noundef nonnull align 8 dereferenceable(8) %0, ptr noundef nonnull align 8 dereferenceable(8) %1) unnamed_addr #3 comdat align 2 {
  %3 = alloca ptr, align 8
  %4 = alloca ptr, align 8
  store ptr %0, ptr %3, align 8, !tbaa !4
  store ptr %1, ptr %4, align 8, !tbaa !23
  %5 = load ptr, ptr %3, align 8
  %6 = getelementptr inbounds nuw %"class.std::chrono::duration", ptr %5, i32 0, i32 0
  %7 = load ptr, ptr %4, align 8, !tbaa !23
  %8 = load i64, ptr %7, align 8, !tbaa !12
  store i64 %8, ptr %6, align 8, !tbaa !14
  ret void
}

; Function Attrs: mustprogress uwtable
define linkonce_odr dso_local i64 @_ZNSt6chrono20__duration_cast_implINS_8durationIlSt5ratioILl1ELl1000000000EEEES2_ILl1ELl1EElLb1ELb1EE6__castIlS3_EES4_RKNS1_IT_T0_EE(ptr noundef nonnull align 8 dereferenceable(8) %0) #0 comdat align 2 {
  %2 = alloca %"class.std::chrono::duration", align 8
  %3 = alloca ptr, align 8
  %4 = alloca i64, align 8
  store ptr %0, ptr %3, align 8, !tbaa !4
  call void @llvm.lifetime.start.p0(i64 8, ptr %4) #12
  %5 = load ptr, ptr %3, align 8, !tbaa !4
  %6 = call noundef i64 @_ZNKSt6chrono8durationIlSt5ratioILl1ELl1000000000EEE5countEv(ptr noundef nonnull align 8 dereferenceable(8) %5)
  store i64 %6, ptr %4, align 8, !tbaa !12
  call void @_ZNSt6chrono8durationIlSt5ratioILl1ELl1000000000EEEC2IlvEERKT_(ptr noundef nonnull align 8 dereferenceable(8) %2, ptr noundef nonnull align 8 dereferenceable(8) %4)
  call void @llvm.lifetime.end.p0(i64 8, ptr %4) #12
  %7 = getelementptr inbounds nuw %"class.std::chrono::duration", ptr %2, i32 0, i32 0
  %8 = load i64, ptr %7, align 8
  ret i64 %8
}

; Function Attrs: mustprogress nounwind uwtable
define linkonce_odr dso_local noundef i64 @_ZNKSt6chrono8durationIlSt5ratioILl1ELl1000000000EEE5countEv(ptr noundef nonnull align 8 dereferenceable(8) %0) #3 comdat align 2 {
  %2 = alloca ptr, align 8
  store ptr %0, ptr %2, align 8, !tbaa !4
  %3 = load ptr, ptr %2, align 8
  %4 = getelementptr inbounds nuw %"class.std::chrono::duration", ptr %3, i32 0, i32 0
  %5 = load i64, ptr %4, align 8, !tbaa !14
  ret i64 %5
}

; Function Attrs: mustprogress uwtable
define linkonce_odr dso_local i64 @_ZNSt6chrono13duration_castINS_8durationIlSt5ratioILl1ELl1000000000EEEElS3_EENSt9enable_ifIXsr13__is_durationIT_EE5valueES6_E4typeERKNS1_IT0_T1_EE(ptr noundef nonnull align 8 dereferenceable(8) %0) #0 comdat {
  %2 = alloca %"class.std::chrono::duration", align 8
  %3 = alloca ptr, align 8
  store ptr %0, ptr %3, align 8, !tbaa !4
  %4 = load ptr, ptr %3, align 8, !tbaa !4
  %5 = call i64 @_ZNSt6chrono20__duration_cast_implINS_8durationIlSt5ratioILl1ELl1000000000EEEES2_ILl1ELl1EElLb1ELb1EE6__castIlS3_EES4_RKNS1_IT_T0_EE(ptr noundef nonnull align 8 dereferenceable(8) %4)
  %6 = getelementptr inbounds nuw %"class.std::chrono::duration", ptr %2, i32 0, i32 0
  store i64 %5, ptr %6, align 8
  %7 = getelementptr inbounds nuw %"class.std::chrono::duration", ptr %2, i32 0, i32 0
  %8 = load i64, ptr %7, align 8
  ret i64 %8
}

; Function Attrs: mustprogress nounwind uwtable
define linkonce_odr dso_local i64 @_ZNKSt6chrono10time_pointINS_3_V212steady_clockENS_8durationIlSt5ratioILl1ELl1000000000EEEEE16time_since_epochEv(ptr noundef nonnull align 8 dereferenceable(8) %0) #3 comdat align 2 {
  %2 = alloca %"class.std::chrono::duration", align 8
  %3 = alloca ptr, align 8
  store ptr %0, ptr %3, align 8, !tbaa !9
  %4 = load ptr, ptr %3, align 8
  %5 = getelementptr inbounds nuw %"class.std::chrono::time_point", ptr %4, i32 0, i32 0
  call void @llvm.memcpy.p0.p0.i64(ptr align 8 %2, ptr align 8 %5, i64 8, i1 false), !tbaa.struct !11
  %6 = getelementptr inbounds nuw %"class.std::chrono::duration", ptr %2, i32 0, i32 0
  %7 = load i64, ptr %6, align 8
  ret i64 %7
}

; Function Attrs: mustprogress uwtable
define dso_local noundef i64 @_ZN4absl24synchronization_internal13KernelTimeout14SteadyClockNowEv() #0 align 2 {
  %1 = alloca %"class.std::chrono::duration", align 8
  %2 = alloca %"class.std::chrono::duration", align 8
  %3 = alloca %"class.std::chrono::time_point", align 8
  call void @llvm.lifetime.start.p0(i64 8, ptr %1) #12
  call void @llvm.lifetime.start.p0(i64 8, ptr %2) #12
  call void @llvm.lifetime.start.p0(i64 8, ptr %3) #12
  %4 = call i64 @_ZNSt6chrono3_V212steady_clock3nowEv() #12
  %5 = getelementptr inbounds nuw %"class.std::chrono::time_point", ptr %3, i32 0, i32 0
  %6 = getelementptr inbounds nuw %"class.std::chrono::duration", ptr %5, i32 0, i32 0
  store i64 %4, ptr %6, align 8
  %7 = call i64 @_ZNKSt6chrono10time_pointINS_3_V212steady_clockENS_8durationIlSt5ratioILl1ELl1000000000EEEEE16time_since_epochEv(ptr noundef nonnull align 8 dereferenceable(8) %3)
  %8 = getelementptr inbounds nuw %"class.std::chrono::duration", ptr %2, i32 0, i32 0
  store i64 %7, ptr %8, align 8
  %9 = call i64 @_ZNSt6chrono13duration_castINS_8durationIlSt5ratioILl1ELl1000000000EEEElS3_EENSt9enable_ifIXsr13__is_durationIT_EE5valueES6_E4typeERKNS1_IT0_T1_EE(ptr noundef nonnull align 8 dereferenceable(8) %2)
  %10 = getelementptr inbounds nuw %"class.std::chrono::duration", ptr %1, i32 0, i32 0
  store i64 %9, ptr %10, align 8
  %11 = call noundef i64 @_ZNKSt6chrono8durationIlSt5ratioILl1ELl1000000000EEE5countEv(ptr noundef nonnull align 8 dereferenceable(8) %1)
  call void @llvm.lifetime.end.p0(i64 8, ptr %3) #12
  call void @llvm.lifetime.end.p0(i64 8, ptr %2) #12
  call void @llvm.lifetime.end.p0(i64 8, ptr %1) #12
  ret i64 %11
}

; Function Attrs: inlinehint mustprogress nounwind uwtable
define linkonce_odr dso_local noundef nonnull align 8 dereferenceable(8) ptr @_ZSt3maxIlERKT_S2_S2_(ptr noundef nonnull align 8 dereferenceable(8) %0, ptr noundef nonnull align 8 dereferenceable(8) %1) #8 comdat {
  %3 = alloca ptr, align 8
  %4 = alloca ptr, align 8
  %5 = alloca ptr, align 8
  store ptr %0, ptr %4, align 8, !tbaa !23
  store ptr %1, ptr %5, align 8, !tbaa !23
  %6 = load ptr, ptr %4, align 8, !tbaa !23
  %7 = load i64, ptr %6, align 8, !tbaa !12
  %8 = load ptr, ptr %5, align 8, !tbaa !23
  %9 = load i64, ptr %8, align 8, !tbaa !12
  %10 = icmp slt i64 %7, %9
  br i1 %10, label %11, label %13

11:                                               ; preds = %2
  %12 = load ptr, ptr %5, align 8, !tbaa !23
  store ptr %12, ptr %3, align 8
  br label %15

13:                                               ; preds = %2
  %14 = load ptr, ptr %4, align 8, !tbaa !23
  store ptr %14, ptr %3, align 8
  br label %15

15:                                               ; preds = %13, %11
  %16 = load ptr, ptr %3, align 8
  ret ptr %16
}

; Function Attrs: mustprogress nounwind uwtable
define linkonce_odr dso_local noundef zeroext i1 @_ZNK4absl24synchronization_internal13KernelTimeout19is_absolute_timeoutEv(ptr noundef nonnull align 8 dereferenceable(8) %0) #3 comdat align 2 {
  %2 = alloca ptr, align 8
  store ptr %0, ptr %2, align 8, !tbaa !16
  %3 = load ptr, ptr %2, align 8
  %4 = getelementptr inbounds nuw %"class.absl::synchronization_internal::KernelTimeout", ptr %3, i32 0, i32 0
  %5 = load i64, ptr %4, align 8, !tbaa !21
  %6 = and i64 %5, 1
  %7 = icmp eq i64 %6, 0
  ret i1 %7
}

; Function Attrs: mustprogress nounwind uwtable
define linkonce_odr dso_local noundef i64 @_ZNK4absl24synchronization_internal13KernelTimeout11RawAbsNanosEv(ptr noundef nonnull align 8 dereferenceable(8) %0) #3 comdat align 2 {
  %2 = alloca ptr, align 8
  store ptr %0, ptr %2, align 8, !tbaa !16
  %3 = load ptr, ptr %2, align 8
  %4 = getelementptr inbounds nuw %"class.absl::synchronization_internal::KernelTimeout", ptr %3, i32 0, i32 0
  %5 = load i64, ptr %4, align 8, !tbaa !21
  %6 = lshr i64 %5, 1
  ret i64 %6
}

; Function Attrs: mustprogress nounwind uwtable
define linkonce_odr dso_local noundef zeroext i1 @_ZNK4absl24synchronization_internal13KernelTimeout11has_timeoutEv(ptr noundef nonnull align 8 dereferenceable(8) %0) #3 comdat align 2 {
  %2 = alloca ptr, align 8
  store ptr %0, ptr %2, align 8, !tbaa !16
  %3 = load ptr, ptr %2, align 8
  %4 = getelementptr inbounds nuw %"class.absl::synchronization_internal::KernelTimeout", ptr %3, i32 0, i32 0
  %5 = load i64, ptr %4, align 8, !tbaa !21
  %6 = icmp ne i64 %5, -1
  ret i1 %6
}

; Function Attrs: mustprogress uwtable
define dso_local noundef i64 @_ZNK4absl24synchronization_internal13KernelTimeout20InNanosecondsFromNowEv(ptr noundef nonnull align 8 dereferenceable(8) %0) #0 align 2 {
  %2 = alloca i64, align 8
  %3 = alloca ptr, align 8
  %4 = alloca i64, align 8
  %5 = alloca i64, align 8
  %6 = alloca i64, align 8
  %7 = alloca i32, align 4
  %8 = alloca i64, align 8
  %9 = alloca i64, align 8
  store ptr %0, ptr %3, align 8, !tbaa !16
  %10 = load ptr, ptr %3, align 8
  %11 = call noundef zeroext i1 @_ZNK4absl24synchronization_internal13KernelTimeout11has_timeoutEv(ptr noundef nonnull align 8 dereferenceable(8) %10)
  br i1 %11, label %13, label %12

12:                                               ; preds = %1
  store i64 9223372036854775807, ptr %2, align 8
  br label %29

13:                                               ; preds = %1
  call void @llvm.lifetime.start.p0(i64 8, ptr %4) #12
  %14 = call noundef i64 @_ZNK4absl24synchronization_internal13KernelTimeout11RawAbsNanosEv(ptr noundef nonnull align 8 dereferenceable(8) %10)
  store i64 %14, ptr %4, align 8, !tbaa !12
  %15 = call noundef zeroext i1 @_ZNK4absl24synchronization_internal13KernelTimeout19is_absolute_timeoutEv(ptr noundef nonnull align 8 dereferenceable(8) %10)
  br i1 %15, label %16, label %22

16:                                               ; preds = %13
  call void @llvm.lifetime.start.p0(i64 8, ptr %5) #12
  %17 = load i64, ptr %4, align 8, !tbaa !12
  %18 = call noundef i64 @_ZN4absl19GetCurrentTimeNanosEv()
  %19 = sub nsw i64 %17, %18
  store i64 %19, ptr %5, align 8, !tbaa !12
  call void @llvm.lifetime.start.p0(i64 8, ptr %6) #12
  store i64 0, ptr %6, align 8, !tbaa !12
  %20 = call noundef nonnull align 8 dereferenceable(8) ptr @_ZSt3maxIlERKT_S2_S2_(ptr noundef nonnull align 8 dereferenceable(8) %5, ptr noundef nonnull align 8 dereferenceable(8) %6)
  %21 = load i64, ptr %20, align 8, !tbaa !12
  store i64 %21, ptr %2, align 8
  call void @llvm.lifetime.end.p0(i64 8, ptr %6) #12
  call void @llvm.lifetime.end.p0(i64 8, ptr %5) #12
  store i32 1, ptr %7, align 4
  br label %28

22:                                               ; preds = %13
  call void @llvm.lifetime.start.p0(i64 8, ptr %8) #12
  %23 = load i64, ptr %4, align 8, !tbaa !12
  %24 = call noundef i64 @_ZN4absl24synchronization_internal13KernelTimeout14SteadyClockNowEv()
  %25 = sub nsw i64 %23, %24
  store i64 %25, ptr %8, align 8, !tbaa !12
  call void @llvm.lifetime.start.p0(i64 8, ptr %9) #12
  store i64 0, ptr %9, align 8, !tbaa !12
  %26 = call noundef nonnull align 8 dereferenceable(8) ptr @_ZSt3maxIlERKT_S2_S2_(ptr noundef nonnull align 8 dereferenceable(8) %8, ptr noundef nonnull align 8 dereferenceable(8) %9)
  %27 = load i64, ptr %26, align 8, !tbaa !12
  store i64 %27, ptr %2, align 8
  call void @llvm.lifetime.end.p0(i64 8, ptr %9) #12
  call void @llvm.lifetime.end.p0(i64 8, ptr %8) #12
  store i32 1, ptr %7, align 4
  br label %28

28:                                               ; preds = %22, %16
  call void @llvm.lifetime.end.p0(i64 8, ptr %4) #12
  br label %29

29:                                               ; preds = %28, %12
  %30 = load i64, ptr %2, align 8
  ret i64 %30
}