; Function Attrs: mustprogress uwtable
define dso_local noundef range(i64 0, -9223372036854775808) i64 @_ZNK4absl24synchronization_internal13KernelTimeout20InNanosecondsFromNowEv(ptr noundef nonnull readonly align 8 captures(none) dereferenceable(8) %0) local_unnamed_addr #5 align 2 {
  %2 = load i64, ptr %0, align 8, !tbaa !4
  %.not = icmp eq i64 %2, -1
  br i1 %.not, label %13, label %3

3:                                                ; preds = %1
  %4 = lshr i64 %2, 1
  %5 = and i64 %2, 1
  %6 = icmp eq i64 %5, 0
  br i1 %6, label %7, label %10

7:                                                ; preds = %3
  %8 = tail call noundef i64 @_ZN4absl19GetCurrentTimeNanosEv()
  %9 = sub nsw i64 %4, %8
  %.sroa.speculated7 = tail call i64 @llvm.smax.i64(i64 %9, i64 0)
  br label %13

10:                                               ; preds = %3
  %11 = tail call noundef i64 @_ZNSt6chrono3_V212steady_clock3nowEv() #8
  %12 = sub nsw i64 %4, %11
  %.sroa.speculated = tail call i64 @llvm.smax.i64(i64 %12, i64 0)
  br label %13

13:                                               ; preds = %7, %10, %1
  %.0 = phi i64 [ 9223372036854775807, %1 ], [ %.sroa.speculated7, %7 ], [ %.sroa.speculated, %10 ]
  ret i64 %.0
}